; Function Attrs: mustprogress uwtable
define void @_ZN10PacketList16setMonospaceFontERK5QFont(ptr noundef nonnull align 8 dereferenceable(464) %0, ptr noundef nonnull align 8 dereferenceable(12) %1) local_unnamed_addr #0 align 2 personality ptr @__gxx_personality_v0 {
  %3 = alloca %class.QFont, align 8
  tail call void @_ZN7QWidget7setFontERK5QFont(ptr noundef nonnull align 8 dereferenceable(40) %0, ptr noundef nonnull align 8 dereferenceable(12) %1)
  %4 = tail call noundef ptr @_ZNK9QTreeView6headerEv(ptr noundef nonnull align 8 dereferenceable(40) %0)
  call void @_ZN12QApplication4fontEv(ptr dead_on_unwind nonnull writable sret(%class.QFont) align 8 %3)
  invoke void @_ZN7QWidget7setFontERK5QFont(ptr noundef nonnull align 8 dereferenceable(40) %4, ptr noundef nonnull align 8 dereferenceable(12) %3)
          to label %5 unwind label %6

5:                                                ; preds = %2
  call void @_ZN5QFontD1Ev(ptr noundef nonnull align 8 dereferenceable(12) %3) #20
  ret void

6:                                                ; preds = %2
  %7 = landingpad { ptr, i32 }
          cleanup
  call void @_ZN5QFontD1Ev(ptr noundef nonnull align 8 dereferenceable(12) %3) #20
  resume { ptr, i32 } %7
}